; Function Attrs: nounwind uwtable
define internal range(i32 0, 2) i32 @sm2_set_ctx_params(ptr noundef %0, ptr noundef %1) #0 {
  %3 = icmp eq ptr %0, null
  br i1 %3, label %ossl_param_is_empty.exit.thread, label %4

4:                                                ; preds = %2
  %5 = icmp eq ptr %1, null
  br i1 %5, label %ossl_param_is_empty.exit.thread, label %ossl_param_is_empty.exit

ossl_param_is_empty.exit:                         ; preds = %4
  %6 = load ptr, ptr %1, align 8, !tbaa !14
  %.not = icmp eq ptr %6, null
  br i1 %.not, label %ossl_param_is_empty.exit.thread, label %7

7:                                                ; preds = %ossl_param_is_empty.exit
  %8 = getelementptr inbounds nuw i8, ptr %0, i64 16
  %9 = load ptr, ptr %0, align 8, !tbaa !3
  %10 = tail call i32 @ossl_prov_digest_load_from_params(ptr noundef nonnull %8, ptr noundef nonnull %1, ptr noundef %9) #5
  %.not7 = icmp ne i32 %10, 0
  %. = zext i1 %.not7 to i32
  br label %ossl_param_is_empty.exit.thread

ossl_param_is_empty.exit.thread:                  ; preds = %4, %7, %ossl_param_is_empty.exit, %2
  %.0 = phi i32 [ 0, %2 ], [ 1, %ossl_param_is_empty.exit ], [ %., %7 ], [ 1, %4 ]
  ret i32 %.0
}